target datalayout = "e-m:e-p270:32:32-p271:32:32-p272:64:64-i64:64-i128:128-f80:128-n8:16:32:64-S128"
target triple = "x86_64-pc-linux-gnu"

; Function Attrs: mustprogress uwtable
define dso_local noundef zeroext i1 @_ZN20cmFindPackageCommand26FindPackageUsingModuleModeEv(ptr noundef nonnull align 8 dereferenceable(1104) %0) #4 align 2 {
  %2 = alloca i1, align 1
  %3 = alloca ptr, align 8
  %4 = alloca i8, align 1
  store ptr %0, ptr %3, align 8
  %5 = load ptr, ptr %3, align 8
  store i8 0, ptr %4, align 1
  %6 = call noundef zeroext i1 @_ZN20cmFindPackageCommand10FindModuleERb(ptr noundef nonnull align 8 dereferenceable(1104) %5, ptr noundef nonnull align 1 dereferenceable(1) %4)
  br i1 %6, label %8, label %7

7:                                                ; preds = %1
  store i1 false, ptr %2, align 1
  br label %11

8:                                                ; preds = %1
  %9 = load i8, ptr %4, align 1
  %10 = trunc i8 %9 to i1
  store i1 %10, ptr %2, align 1
  br label %11

11:                                               ; preds = %8, %7
  %12 = load i1, ptr %2, align 1
  ret i1 %12
}