; Function Attrs: mustprogress uwtable
define dso_local noundef zeroext i1 @_ZN20cmFindPackageCommand26FindPackageUsingModuleModeEv(ptr noundef nonnull align 8 dereferenceable(1104) %0) local_unnamed_addr #3 align 2 {
  %2 = alloca i8, align 1
  store i8 0, ptr %2, align 1
  %3 = call noundef zeroext i1 @_ZN20cmFindPackageCommand10FindModuleERb(ptr noundef nonnull align 8 dereferenceable(1104) %0, ptr noundef nonnull align 1 dereferenceable(1) %2)
  %4 = load i8, ptr %2, align 1
  %5 = and i8 %4, 1
  %6 = icmp ne i8 %5, 0
  %.0 = select i1 %3, i1 %6, i1 false
  ret i1 %.0
}